target datalayout = "e-m:e-p270:32:32-p271:32:32-p272:64:64-i64:64-i128:128-f80:128-n8:16:32:64-S128"
target triple = "x86_64-pc-linux-gnu"

%struct.KINMemRec = type { double, ptr, ptr, double, double, i32, i32, i64, i64, i64, i64, i32, i32, i32, i32, i32, i32, i32, i32, i32, double, double, double, double, double, double, double, double, double, i32, double, i64, i64, i64, i64, i64, i64, i64, ptr, ptr, ptr, ptr, ptr, ptr, ptr, ptr, ptr, ptr, ptr, ptr, ptr, ptr, ptr, ptr, ptr, ptr, i64, i32, i32, i64, i64, i64, i64, ptr, ptr, ptr, ptr, i32, ptr, double, double, double, double, double, i32, double, double, double, i32, ptr, ptr, ptr, ptr, ptr, ptr }
%struct.KINDlsMemRec = type { i32, i64, i64, i64, i64, i32, ptr, ptr, ptr, ptr, ptr, ptr, i64, i64, i64 }

@.str = private unnamed_addr constant [7 x i8] c"KINDLS\00", align 1
@.str.1 = private unnamed_addr constant [20 x i8] c"KINDlsSetDenseJacFn\00", align 1
@.str.2 = private unnamed_addr constant [23 x i8] c"KINSOL memory is NULL.\00", align 1
@.str.3 = private unnamed_addr constant [30 x i8] c"Linear solver memory is NULL.\00", align 1

; Function Attrs: nounwind uwtable
define i32 @KINDlsSetDenseJacFn(ptr noundef %0, ptr noundef %1) #0 {
  %3 = alloca i32, align 4
  %4 = alloca ptr, align 8
  %5 = alloca ptr, align 8
  %6 = alloca ptr, align 8
  %7 = alloca ptr, align 8
  %8 = alloca i32, align 4
  store ptr %0, ptr %4, align 8, !tbaa !3
  store ptr %1, ptr %5, align 8, !tbaa !3
  call void @llvm.lifetime.start.p0(i64 8, ptr %6) #5
  call void @llvm.lifetime.start.p0(i64 8, ptr %7) #5
  %9 = load ptr, ptr %4, align 8, !tbaa !3
  %10 = icmp eq ptr %9, null
  br i1 %10, label %11, label %12

11:                                               ; preds = %2
  call void (ptr, i32, ptr, ptr, ptr, ...) @KINProcessError(ptr noundef null, i32 noundef -1, ptr noundef @.str, ptr noundef @.str.1, ptr noundef @.str.2)
  store i32 -1, ptr %3, align 4
  store i32 1, ptr %8, align 4
  br label %36

12:                                               ; preds = %2
  %13 = load ptr, ptr %4, align 8, !tbaa !3
  store ptr %13, ptr %6, align 8, !tbaa !7
  %14 = load ptr, ptr %6, align 8, !tbaa !7
  %15 = getelementptr inbounds nuw %struct.KINMemRec, ptr %14, i32 0, i32 68
  %16 = load ptr, ptr %15, align 8, !tbaa !9
  %17 = icmp eq ptr %16, null
  br i1 %17, label %18, label %20

18:                                               ; preds = %12
  %19 = load ptr, ptr %6, align 8, !tbaa !7
  call void (ptr, i32, ptr, ptr, ptr, ...) @KINProcessError(ptr noundef %19, i32 noundef -2, ptr noundef @.str, ptr noundef @.str.1, ptr noundef @.str.3)
  store i32 -2, ptr %3, align 4
  store i32 1, ptr %8, align 4
  br label %36

20:                                               ; preds = %12
  %21 = load ptr, ptr %6, align 8, !tbaa !7
  %22 = getelementptr inbounds nuw %struct.KINMemRec, ptr %21, i32 0, i32 68
  %23 = load ptr, ptr %22, align 8, !tbaa !9
  store ptr %23, ptr %7, align 8, !tbaa !18
  %24 = load ptr, ptr %5, align 8, !tbaa !3
  %25 = icmp ne ptr %24, null
  br i1 %25, label %26, label %32

26:                                               ; preds = %20
  %27 = load ptr, ptr %7, align 8, !tbaa !18
  %28 = getelementptr inbounds nuw %struct.KINDlsMemRec, ptr %27, i32 0, i32 5
  store i32 0, ptr %28, align 8, !tbaa !20
  %29 = load ptr, ptr %5, align 8, !tbaa !3
  %30 = load ptr, ptr %7, align 8, !tbaa !18
  %31 = getelementptr inbounds nuw %struct.KINDlsMemRec, ptr %30, i32 0, i32 6
  store ptr %29, ptr %31, align 8, !tbaa !25
  br label %35

32:                                               ; preds = %20
  %33 = load ptr, ptr %7, align 8, !tbaa !18
  %34 = getelementptr inbounds nuw %struct.KINDlsMemRec, ptr %33, i32 0, i32 5
  store i32 1, ptr %34, align 8, !tbaa !20
  br label %35

35:                                               ; preds = %32, %26
  store i32 0, ptr %3, align 4
  store i32 1, ptr %8, align 4
  br label %36

36:                                               ; preds = %35, %18, %11
  call void @llvm.lifetime.end.p0(i64 8, ptr %7) #5
  call void @llvm.lifetime.end.p0(i64 8, ptr %6) #5
  %37 = load i32, ptr %3, align 4
  ret i32 %37
}