; Function Attrs: nounwind uwtable
define range(i32 -2, 1) i32 @KINDlsSetDenseJacFn(ptr noundef %0, ptr noundef %1) local_unnamed_addr #0 {
  %3 = icmp eq ptr %0, null
  br i1 %3, label %4, label %5

4:                                                ; preds = %2
  tail call void (ptr, i32, ptr, ptr, ptr, ...) @KINProcessError(ptr noundef null, i32 noundef -1, ptr noundef nonnull @.str, ptr noundef nonnull @.str.1, ptr noundef nonnull @.str.2) #6
  br label %15

5:                                                ; preds = %2
  %6 = getelementptr inbounds nuw i8, ptr %0, i64 496
  %7 = load ptr, ptr %6, align 8, !tbaa !3
  %8 = icmp eq ptr %7, null
  br i1 %8, label %9, label %10

9:                                                ; preds = %5
  tail call void (ptr, i32, ptr, ptr, ptr, ...) @KINProcessError(ptr noundef nonnull %0, i32 noundef -2, ptr noundef nonnull @.str, ptr noundef nonnull @.str.1, ptr noundef nonnull @.str.3) #6
  br label %15

10:                                               ; preds = %5
  %.not = icmp eq ptr %1, null
  %11 = getelementptr inbounds nuw i8, ptr %7, i64 40
  br i1 %.not, label %14, label %12

12:                                               ; preds = %10
  store i32 0, ptr %11, align 8, !tbaa !15
  %13 = getelementptr inbounds nuw i8, ptr %7, i64 48
  store ptr %1, ptr %13, align 8, !tbaa !20
  br label %15

14:                                               ; preds = %10
  store i32 1, ptr %11, align 8, !tbaa !15
  br label %15

15:                                               ; preds = %12, %14, %9, %4
  %.0 = phi i32 [ -1, %4 ], [ -2, %9 ], [ 0, %14 ], [ 0, %12 ]
  ret i32 %.0
}